target datalayout = "e-m:e-p270:32:32-p271:32:32-p272:64:64-i64:64-i128:128-f80:128-n8:16:32:64-S128"
target triple = "x86_64-pc-linux-gnu"

%struct.aeEventLoop = type { i32, i32, i64, i32, ptr, ptr, ptr, i32, ptr, ptr, ptr, i32, [2 x ptr] }
%struct.aeFileEvent = type { i32, ptr, ptr, ptr }
%struct.aeApiState = type { i32, ptr }
%struct.epoll_event = type <{ i32, %union.epoll_data }>
%union.epoll_data = type { ptr }

; Function Attrs: nounwind uwtable
define internal void @aeApiDelEvent(ptr noundef %0, i32 noundef %1, i32 noundef %2) #0 {
  %4 = alloca ptr, align 8
  %5 = alloca i32, align 4
  %6 = alloca i32, align 4
  %7 = alloca ptr, align 8
  %8 = alloca %struct.epoll_event, align 1
  %9 = alloca i32, align 4
  store ptr %0, ptr %4, align 8, !tbaa !9
  store i32 %1, ptr %5, align 4, !tbaa !5
  store i32 %2, ptr %6, align 4, !tbaa !5
  call void @llvm.lifetime.start.p0(i64 8, ptr %7) #10
  %10 = load ptr, ptr %4, align 8, !tbaa !9
  %11 = getelementptr inbounds nuw %struct.aeEventLoop, ptr %10, i32 0, i32 8
  %12 = load ptr, ptr %11, align 8, !tbaa !38
  store ptr %12, ptr %7, align 8, !tbaa !32
  call void @llvm.lifetime.start.p0(i64 12, ptr %8) #10
  call void @llvm.memset.p0.i64(ptr align 1 %8, i8 0, i64 12, i1 false)
  call void @llvm.lifetime.start.p0(i64 4, ptr %9) #10
  %13 = load ptr, ptr %4, align 8, !tbaa !9
  %14 = getelementptr inbounds nuw %struct.aeEventLoop, ptr %13, i32 0, i32 4
  %15 = load ptr, ptr %14, align 8, !tbaa !18
  %16 = load i32, ptr %5, align 4, !tbaa !5
  %17 = sext i32 %16 to i64
  %18 = getelementptr inbounds %struct.aeFileEvent, ptr %15, i64 %17
  %19 = getelementptr inbounds nuw %struct.aeFileEvent, ptr %18, i32 0, i32 0
  %20 = load i32, ptr %19, align 8, !tbaa !28
  %21 = load i32, ptr %6, align 4, !tbaa !5
  %22 = xor i32 %21, -1
  %23 = and i32 %20, %22
  store i32 %23, ptr %9, align 4, !tbaa !5
  %24 = getelementptr inbounds nuw %struct.epoll_event, ptr %8, i32 0, i32 0
  store i32 0, ptr %24, align 1, !tbaa !52
  %25 = load i32, ptr %9, align 4, !tbaa !5
  %26 = and i32 %25, 1
  %27 = icmp ne i32 %26, 0
  br i1 %27, label %28, label %32

28:                                               ; preds = %3
  %29 = getelementptr inbounds nuw %struct.epoll_event, ptr %8, i32 0, i32 0
  %30 = load i32, ptr %29, align 1, !tbaa !52
  %31 = or i32 %30, 1
  store i32 %31, ptr %29, align 1, !tbaa !52
  br label %32

32:                                               ; preds = %28, %3
  %33 = load i32, ptr %9, align 4, !tbaa !5
  %34 = and i32 %33, 2
  %35 = icmp ne i32 %34, 0
  br i1 %35, label %36, label %40

36:                                               ; preds = %32
  %37 = getelementptr inbounds nuw %struct.epoll_event, ptr %8, i32 0, i32 0
  %38 = load i32, ptr %37, align 1, !tbaa !52
  %39 = or i32 %38, 4
  store i32 %39, ptr %37, align 1, !tbaa !52
  br label %40

40:                                               ; preds = %36, %32
  %41 = load i32, ptr %5, align 4, !tbaa !5
  %42 = getelementptr inbounds nuw %struct.epoll_event, ptr %8, i32 0, i32 1
  store i32 %41, ptr %42, align 1, !tbaa !54
  %43 = load i32, ptr %9, align 4, !tbaa !5
  %44 = icmp ne i32 %43, 0
  br i1 %44, label %45, label %51

45:                                               ; preds = %40
  %46 = load ptr, ptr %7, align 8, !tbaa !32
  %47 = getelementptr inbounds nuw %struct.aeApiState, ptr %46, i32 0, i32 0
  %48 = load i32, ptr %47, align 8, !tbaa !37
  %49 = load i32, ptr %5, align 4, !tbaa !5
  %50 = call i32 @epoll_ctl(i32 noundef %48, i32 noundef 3, i32 noundef %49, ptr noundef %8) #10
  br label %57

51:                                               ; preds = %40
  %52 = load ptr, ptr %7, align 8, !tbaa !32
  %53 = getelementptr inbounds nuw %struct.aeApiState, ptr %52, i32 0, i32 0
  %54 = load i32, ptr %53, align 8, !tbaa !37
  %55 = load i32, ptr %5, align 4, !tbaa !5
  %56 = call i32 @epoll_ctl(i32 noundef %54, i32 noundef 2, i32 noundef %55, ptr noundef %8) #10
  br label %57

57:                                               ; preds = %51, %45
  call void @llvm.lifetime.end.p0(i64 4, ptr %9) #10
  call void @llvm.lifetime.end.p0(i64 12, ptr %8) #10
  call void @llvm.lifetime.end.p0(i64 8, ptr %7) #10
  ret void
}

; Function Attrs: nounwind uwtable
define dso_local void @aeDeleteFileEvent(ptr noundef %0, i32 noundef %1, i32 noundef %2) #0 {
  %4 = alloca ptr, align 8
  %5 = alloca i32, align 4
  %6 = alloca i32, align 4
  %7 = alloca ptr, align 8
  %8 = alloca i32, align 4
  %9 = alloca i32, align 4
  store ptr %0, ptr %4, align 8, !tbaa !9
  store i32 %1, ptr %5, align 4, !tbaa !5
  store i32 %2, ptr %6, align 4, !tbaa !5
  %10 = load i32, ptr %5, align 4, !tbaa !5
  %11 = load ptr, ptr %4, align 8, !tbaa !9
  %12 = getelementptr inbounds nuw %struct.aeEventLoop, ptr %11, i32 0, i32 1
  %13 = load i32, ptr %12, align 4, !tbaa !20
  %14 = icmp sge i32 %10, %13
  br i1 %14, label %15, label %16

15:                                               ; preds = %3
  br label %87

16:                                               ; preds = %3
  call void @llvm.lifetime.start.p0(i64 8, ptr %7) #10
  %17 = load ptr, ptr %4, align 8, !tbaa !9
  %18 = getelementptr inbounds nuw %struct.aeEventLoop, ptr %17, i32 0, i32 4
  %19 = load ptr, ptr %18, align 8, !tbaa !18
  %20 = load i32, ptr %5, align 4, !tbaa !5
  %21 = sext i32 %20 to i64
  %22 = getelementptr inbounds %struct.aeFileEvent, ptr %19, i64 %21
  store ptr %22, ptr %7, align 8, !tbaa !48
  %23 = load ptr, ptr %7, align 8, !tbaa !48
  %24 = getelementptr inbounds nuw %struct.aeFileEvent, ptr %23, i32 0, i32 0
  %25 = load i32, ptr %24, align 8, !tbaa !28
  %26 = icmp eq i32 %25, 0
  br i1 %26, label %27, label %28

27:                                               ; preds = %16
  store i32 1, ptr %8, align 4
  br label %85

28:                                               ; preds = %16
  %29 = load i32, ptr %6, align 4, !tbaa !5
  %30 = and i32 %29, 2
  %31 = icmp ne i32 %30, 0
  br i1 %31, label %32, label %35

32:                                               ; preds = %28
  %33 = load i32, ptr %6, align 4, !tbaa !5
  %34 = or i32 %33, 4
  store i32 %34, ptr %6, align 4, !tbaa !5
  br label %35

35:                                               ; preds = %32, %28
  %36 = load ptr, ptr %4, align 8, !tbaa !9
  %37 = load i32, ptr %5, align 4, !tbaa !5
  %38 = load i32, ptr %6, align 4, !tbaa !5
  call void @aeApiDelEvent(ptr noundef %36, i32 noundef %37, i32 noundef %38)
  %39 = load ptr, ptr %7, align 8, !tbaa !48
  %40 = getelementptr inbounds nuw %struct.aeFileEvent, ptr %39, i32 0, i32 0
  %41 = load i32, ptr %40, align 8, !tbaa !28
  %42 = load i32, ptr %6, align 4, !tbaa !5
  %43 = xor i32 %42, -1
  %44 = and i32 %41, %43
  %45 = load ptr, ptr %7, align 8, !tbaa !48
  %46 = getelementptr inbounds nuw %struct.aeFileEvent, ptr %45, i32 0, i32 0
  store i32 %44, ptr %46, align 8, !tbaa !28
  %47 = load i32, ptr %5, align 4, !tbaa !5
  %48 = load ptr, ptr %4, align 8, !tbaa !9
  %49 = getelementptr inbounds nuw %struct.aeEventLoop, ptr %48, i32 0, i32 0
  %50 = load i32, ptr %49, align 8, !tbaa !24
  %51 = icmp eq i32 %47, %50
  br i1 %51, label %52, label %84

52:                                               ; preds = %35
  %53 = load ptr, ptr %7, align 8, !tbaa !48
  %54 = getelementptr inbounds nuw %struct.aeFileEvent, ptr %53, i32 0, i32 0
  %55 = load i32, ptr %54, align 8, !tbaa !28
  %56 = icmp eq i32 %55, 0
  br i1 %56, label %57, label %84

57:                                               ; preds = %52
  call void @llvm.lifetime.start.p0(i64 4, ptr %9) #10
  %58 = load ptr, ptr %4, align 8, !tbaa !9
  %59 = getelementptr inbounds nuw %struct.aeEventLoop, ptr %58, i32 0, i32 0
  %60 = load i32, ptr %59, align 8, !tbaa !24
  %61 = sub nsw i32 %60, 1
  store i32 %61, ptr %9, align 4, !tbaa !5
  br label %62

62:                                               ; preds = %77, %57
  %63 = load i32, ptr %9, align 4, !tbaa !5
  %64 = icmp sge i32 %63, 0
  br i1 %64, label %65, label %80

65:                                               ; preds = %62
  %66 = load ptr, ptr %4, align 8, !tbaa !9
  %67 = getelementptr inbounds nuw %struct.aeEventLoop, ptr %66, i32 0, i32 4
  %68 = load ptr, ptr %67, align 8, !tbaa !18
  %69 = load i32, ptr %9, align 4, !tbaa !5
  %70 = sext i32 %69 to i64
  %71 = getelementptr inbounds %struct.aeFileEvent, ptr %68, i64 %70
  %72 = getelementptr inbounds nuw %struct.aeFileEvent, ptr %71, i32 0, i32 0
  %73 = load i32, ptr %72, align 8, !tbaa !28
  %74 = icmp ne i32 %73, 0
  br i1 %74, label %75, label %76

75:                                               ; preds = %65
  br label %80

76:                                               ; preds = %65
  br label %77

77:                                               ; preds = %76
  %78 = load i32, ptr %9, align 4, !tbaa !5
  %79 = add nsw i32 %78, -1
  store i32 %79, ptr %9, align 4, !tbaa !5
  br label %62, !llvm.loop !55

80:                                               ; preds = %75, %62
  %81 = load i32, ptr %9, align 4, !tbaa !5
  %82 = load ptr, ptr %4, align 8, !tbaa !9
  %83 = getelementptr inbounds nuw %struct.aeEventLoop, ptr %82, i32 0, i32 0
  store i32 %81, ptr %83, align 8, !tbaa !24
  call void @llvm.lifetime.end.p0(i64 4, ptr %9) #10
  br label %84

84:                                               ; preds = %80, %52, %35
  store i32 0, ptr %8, align 4
  br label %85

85:                                               ; preds = %84, %27
  call void @llvm.lifetime.end.p0(i64 8, ptr %7) #10
  %86 = load i32, ptr %8, align 4
  switch i32 %86, label %88 [
    i32 0, label %87
    i32 1, label %87
  ]

87:                                               ; preds = %15, %85, %85
  ret void

88:                                               ; preds = %85
  unreachable
}