; Function Attrs: nounwind uwtable
define dso_local void @aeDeleteFileEvent(ptr noundef captures(none) %0, i32 noundef %1, i32 noundef %2) local_unnamed_addr #0 {
  %4 = alloca %struct.epoll_event, align 4
  %5 = getelementptr inbounds nuw i8, ptr %0, i64 4
  %6 = load i32, ptr %5, align 4, !tbaa !17
  %.not = icmp slt i32 %1, %6
  br i1 %.not, label %7, label %41

7:                                                ; preds = %3
  %8 = getelementptr inbounds nuw i8, ptr %0, i64 24
  %9 = load ptr, ptr %8, align 8, !tbaa !15
  %10 = sext i32 %1 to i64
  %11 = getelementptr inbounds %struct.aeFileEvent, ptr %9, i64 %10
  %12 = load i32, ptr %11, align 8, !tbaa !27
  %13 = icmp eq i32 %12, 0
  br i1 %13, label %41, label %14

14:                                               ; preds = %7
  %15 = shl i32 %2, 1
  %16 = and i32 %15, 4
  %spec.select = or i32 %16, %2
  %17 = getelementptr i8, ptr %0, i64 56
  %.val27 = load ptr, ptr %17, align 8, !tbaa !26
  call void @llvm.lifetime.start.p0(i64 12, ptr nonnull %4) #16
  %18 = getelementptr inbounds nuw i8, ptr %4, i64 4
  store i64 0, ptr %18, align 4
  %19 = xor i32 %spec.select, -1
  %20 = and i32 %12, %19
  %21 = and i32 %20, 1
  store i32 %21, ptr %4, align 4, !tbaa !45
  %22 = and i32 %20, 2
  %.not11.i = icmp eq i32 %22, 0
  br i1 %.not11.i, label %24, label %.thread.i

.thread.i:                                        ; preds = %14
  %23 = or disjoint i32 %21, 4
  store i32 %23, ptr %4, align 4, !tbaa !45
  br label %aeApiDelEvent.exit

24:                                               ; preds = %14
  %.not12.i = icmp eq i32 %20, 0
  %spec.select.i = select i1 %.not12.i, i32 2, i32 3
  br label %aeApiDelEvent.exit

aeApiDelEvent.exit:                               ; preds = %.thread.i, %24
  %.sink2.i = phi i32 [ 3, %.thread.i ], [ %spec.select.i, %24 ]
  store i32 %1, ptr %18, align 4, !tbaa !41
  %25 = load i32, ptr %.val27, align 8, !tbaa !25
  %26 = call i32 @epoll_ctl(i32 noundef %25, i32 noundef %.sink2.i, i32 noundef %1, ptr noundef nonnull %4) #16
  call void @llvm.lifetime.end.p0(i64 12, ptr nonnull %4) #16
  %27 = load i32, ptr %11, align 8, !tbaa !27
  %28 = and i32 %27, %19
  store i32 %28, ptr %11, align 8, !tbaa !27
  %29 = load i32, ptr %0, align 8, !tbaa !21
  %30 = icmp eq i32 %1, %29
  %31 = icmp eq i32 %28, 0
  %or.cond = select i1 %30, i1 %31, i1 false
  br i1 %or.cond, label %.preheader.preheader, label %41

.preheader.preheader:                             ; preds = %aeApiDelEvent.exit
  %32 = zext i32 %1 to i64
  %smin = call i32 @llvm.smin.i32(i32 %1, i32 0)
  %33 = add i32 %smin, -1
  br label %.preheader

.preheader:                                       ; preds = %.preheader.preheader, %36
  %indvars.iv = phi i64 [ %32, %.preheader.preheader ], [ %indvars.iv.next, %36 ]
  %34 = trunc nuw i64 %indvars.iv to i32
  %35 = icmp sgt i32 %34, 0
  br i1 %35, label %36, label %.split.loop.exit29

36:                                               ; preds = %.preheader
  %indvars.iv.next = add nsw i64 %indvars.iv, -1
  %37 = load ptr, ptr %8, align 8, !tbaa !15
  %38 = and i64 %indvars.iv.next, 4294967295
  %39 = getelementptr inbounds nuw %struct.aeFileEvent, ptr %37, i64 %38
  %40 = load i32, ptr %39, align 8, !tbaa !27
  %.not26 = icmp eq i32 %40, 0
  br i1 %.not26, label %.preheader, label %.split.loop.exit, !llvm.loop !47

.split.loop.exit:                                 ; preds = %36
  %indvars.le = trunc i64 %indvars.iv.next to i32
  br label %.split.loop.exit29

.split.loop.exit29:                               ; preds = %.preheader, %.split.loop.exit
  %.0.lcssa = phi i32 [ %indvars.le, %.split.loop.exit ], [ %33, %.preheader ]
  store i32 %.0.lcssa, ptr %0, align 8, !tbaa !21
  br label %41

41:                                               ; preds = %7, %.split.loop.exit29, %aeApiDelEvent.exit, %3
  ret void
}